; Function Attrs: mustprogress null_pointer_is_valid sspstrong uwtable
define void @_ZN20WlanStatisticsDialog8tapResetEPv(ptr noundef %0) #2 align 2 {
  %.not = icmp eq ptr %0, null
  br i1 %.not, label %5, label %2

2:                                                ; preds = %1
  %3 = tail call noundef ptr @_ZN18TapParameterDialog15statsTreeWidgetEv(ptr noundef nonnull align 8 dereferenceable_or_null(232) %0)
  tail call void @_ZN11QTreeWidget5clearEv(ptr noundef align 8 dereferenceable_or_null(40) %3)
  %4 = getelementptr inbounds nuw i8, ptr %0, i64 232
  store i32 0, ptr %4, align 8
  br label %5

5:                                                ; preds = %1, %2
  ret void
}